target datalayout = "e-m:e-p270:32:32-p271:32:32-p272:64:64-i64:64-i128:128-f80:128-n8:16:32:64-S128"
target triple = "x86_64-pc-linux-gnu"

%class.Timer = type { %"class.std::__cxx11::basic_string", i32, i64, i64, %"class.std::chrono::time_point", i64 }
%"class.std::__cxx11::basic_string" = type { %"struct.std::__cxx11::basic_string<char>::_Alloc_hider", i64, %union.anon }
%"struct.std::__cxx11::basic_string<char>::_Alloc_hider" = type { ptr }
%union.anon = type { i64, [8 x i8] }
%"class.std::chrono::time_point" = type { %"class.std::chrono::duration" }
%"class.std::chrono::duration" = type { i64 }

; Function Attrs: mustprogress nounwind uwtable
define void @_ZN5TimerpLERKS_(ptr noundef nonnull align 8 dereferenceable(72) %0, ptr noundef nonnull align 8 dereferenceable(72) %1) #5 align 2 {
  %3 = alloca ptr, align 8
  %4 = alloca ptr, align 8
  store ptr %0, ptr %3, align 8
  store ptr %1, ptr %4, align 8
  %5 = load ptr, ptr %3, align 8
  %6 = load ptr, ptr %4, align 8
  %7 = getelementptr inbounds nuw %class.Timer, ptr %6, i32 0, i32 1
  %8 = load i32, ptr %7, align 8
  %9 = getelementptr inbounds nuw %class.Timer, ptr %5, i32 0, i32 1
  %10 = load i32, ptr %9, align 8
  %11 = add nsw i32 %10, %8
  store i32 %11, ptr %9, align 8
  %12 = load ptr, ptr %4, align 8
  %13 = getelementptr inbounds nuw %class.Timer, ptr %12, i32 0, i32 2
  %14 = load i64, ptr %13, align 8
  %15 = getelementptr inbounds nuw %class.Timer, ptr %5, i32 0, i32 2
  %16 = load i64, ptr %15, align 8
  %17 = add nsw i64 %16, %14
  store i64 %17, ptr %15, align 8
  %18 = load ptr, ptr %4, align 8
  %19 = getelementptr inbounds nuw %class.Timer, ptr %18, i32 0, i32 3
  %20 = load i64, ptr %19, align 8
  %21 = getelementptr inbounds nuw %class.Timer, ptr %5, i32 0, i32 3
  %22 = load i64, ptr %21, align 8
  %23 = add nsw i64 %22, %20
  store i64 %23, ptr %21, align 8
  ret void
}